; ModuleID = 'source-C-CXX/46/2688.c'
source_filename = "source-C-CXX/46/2688.c"
target datalayout = "e-m:e-p270:32:32-p271:32:32-p272:64:64-i64:64-f80:128-n8:16:32:64-S128"
target triple = "x86_64-pc-linux-gnu"

@.str = private unnamed_addr constant [3 x i8] c"%d\00", align 1
@.str.1 = private unnamed_addr constant [4 x i8] c" %d\00", align 1

; Function Attrs: nofree nounwind sspstrong uwtable
define dso_local i32 @main() local_unnamed_addr #0 {
  %1 = alloca i32, align 4
  %2 = alloca [100 x i32], align 16
  %3 = bitcast i32* %1 to i8*
  call void @llvm.lifetime.start.p0i8(i64 4, i8* nonnull %3) #3
  %4 = bitcast [100 x i32]* %2 to i8*
  call void @llvm.lifetime.start.p0i8(i64 400, i8* nonnull %4) #3
  %5 = call i32 (i8*, ...) @__isoc99_scanf(i8* getelementptr inbounds ([3 x i8], [3 x i8]* @.str, i64 0, i64 0), i32* nonnull %1)
  %6 = load i32, i32* %1, align 4, !tbaa !5
  %7 = icmp sgt i32 %6, 0
  br i1 %7, label %17, label %77

8:                                                ; preds = %17
  %9 = icmp sgt i32 %22, 1
  br i1 %9, label %10, label %37

10:                                               ; preds = %8
  %11 = lshr i32 %22, 1
  %12 = zext i32 %11 to i64
  %13 = and i64 %12, 1
  %14 = icmp eq i32 %11, 1
  br i1 %14, label %25, label %15

15:                                               ; preds = %10
  %16 = and i64 %12, 2147483646
  br label %45

17:                                               ; preds = %0, %17
  %18 = phi i64 [ %21, %17 ], [ 0, %0 ]
  %19 = getelementptr inbounds [100 x i32], [100 x i32]* %2, i64 0, i64 %18
  %20 = call i32 (i8*, ...) @__isoc99_scanf(i8* getelementptr inbounds ([3 x i8], [3 x i8]* @.str, i64 0, i64 0), i32* nonnull %19)
  %21 = add nuw nsw i64 %18, 1
  %22 = load i32, i32* %1, align 4, !tbaa !5
  %23 = sext i32 %22 to i64
  %24 = icmp slt i64 %21, %23
  br i1 %24, label %17, label %8, !llvm.loop !9

25:                                               ; preds = %45, %10
  %26 = phi i64 [ 0, %10 ], [ %65, %45 ]
  %27 = icmp eq i64 %13, 0
  br i1 %27, label %37, label %28

28:                                               ; preds = %25
  %29 = getelementptr inbounds [100 x i32], [100 x i32]* %2, i64 0, i64 %26
  %30 = load i32, i32* %29, align 4, !tbaa !5
  %31 = trunc i64 %26 to i32
  %32 = xor i32 %31, -1
  %33 = add i32 %22, %32
  %34 = sext i32 %33 to i64
  %35 = getelementptr inbounds [100 x i32], [100 x i32]* %2, i64 0, i64 %34
  %36 = load i32, i32* %35, align 4, !tbaa !5
  store i32 %36, i32* %29, align 4, !tbaa !5
  store i32 %30, i32* %35, align 4, !tbaa !5
  br label %37

37:                                               ; preds = %28, %25, %8
  %38 = icmp sgt i32 %22, 0
  br i1 %38, label %39, label %77

39:                                               ; preds = %37
  %40 = getelementptr inbounds [100 x i32], [100 x i32]* %2, i64 0, i64 0
  %41 = load i32, i32* %40, align 16, !tbaa !5
  %42 = call i32 (i8*, ...) @printf(i8* nonnull dereferenceable(1) getelementptr inbounds ([3 x i8], [3 x i8]* @.str, i64 0, i64 0), i32 %41)
  %43 = load i32, i32* %1, align 4, !tbaa !5
  %44 = icmp sgt i32 %43, 1
  br i1 %44, label %68, label %77

45:                                               ; preds = %45, %15
  %46 = phi i64 [ 0, %15 ], [ %65, %45 ]
  %47 = phi i64 [ %16, %15 ], [ %66, %45 ]
  %48 = getelementptr inbounds [100 x i32], [100 x i32]* %2, i64 0, i64 %46
  %49 = load i32, i32* %48, align 8, !tbaa !5
  %50 = trunc i64 %46 to i32
  %51 = xor i32 %50, -1
  %52 = add i32 %22, %51
  %53 = sext i32 %52 to i64
  %54 = getelementptr inbounds [100 x i32], [100 x i32]* %2, i64 0, i64 %53
  %55 = load i32, i32* %54, align 4, !tbaa !5
  store i32 %55, i32* %48, align 8, !tbaa !5
  store i32 %49, i32* %54, align 4, !tbaa !5
  %56 = or i64 %46, 1
  %57 = getelementptr inbounds [100 x i32], [100 x i32]* %2, i64 0, i64 %56
  %58 = load i32, i32* %57, align 4, !tbaa !5
  %59 = trunc i64 %56 to i32
  %60 = xor i32 %59, -1
  %61 = add i32 %22, %60
  %62 = sext i32 %61 to i64
  %63 = getelementptr inbounds [100 x i32], [100 x i32]* %2, i64 0, i64 %62
  %64 = load i32, i32* %63, align 4, !tbaa !5
  store i32 %64, i32* %57, align 4, !tbaa !5
  store i32 %58, i32* %63, align 4, !tbaa !5
  %65 = add nuw nsw i64 %46, 2
  %66 = add i64 %47, -2
  %67 = icmp eq i64 %66, 0
  br i1 %67, label %25, label %45, !llvm.loop !11

68:                                               ; preds = %39, %68
  %69 = phi i64 [ %74, %68 ], [ 1, %39 ]
  %70 = getelementptr inbounds [100 x i32], [100 x i32]* %2, i64 0, i64 %69
  %71 = load i32, i32* %70, align 4, !tbaa !5
  %72 = call i32 (i8*, ...) @printf(i8* nonnull dereferenceable(1) getelementptr inbounds ([4 x i8], [4 x i8]* @.str.1, i64 0, i64 0), i32 %71)
  %73 = load i32, i32* %1, align 4, !tbaa !5
  %74 = add nuw nsw i64 %69, 1
  %75 = sext i32 %73 to i64
  %76 = icmp slt i64 %74, %75
  br i1 %76, label %68, label %77, !llvm.loop !12

77:                                               ; preds = %68, %0, %39, %37
  call void @llvm.lifetime.end.p0i8(i64 400, i8* nonnull %4) #3
  call void @llvm.lifetime.end.p0i8(i64 4, i8* nonnull %3) #3
  ret i32 0
}

; Function Attrs: argmemonly mustprogress nofree nosync nounwind willreturn
declare void @llvm.lifetime.start.p0i8(i64 immarg, i8* nocapture) #1

; Function Attrs: nofree nounwind
declare noundef i32 @__isoc99_scanf(i8* nocapture noundef readonly, ...) local_unnamed_addr #2

; Function Attrs: nofree nounwind
declare noundef i32 @printf(i8* nocapture noundef readonly, ...) local_unnamed_addr #2

; Function Attrs: argmemonly mustprogress nofree nosync nounwind willreturn
declare void @llvm.lifetime.end.p0i8(i64 immarg, i8* nocapture) #1


!llvm.module.flags = !{!0, !1, !2, !3}
!llvm.ident = !{!4}

!0 = !{i32 1, !"wchar_size", i32 4}
!1 = !{i32 7, !"PIC Level", i32 2}
!2 = !{i32 7, !"PIE Level", i32 2}
!3 = !{i32 7, !"uwtable", i32 1}
!4 = !{!"clang version 13.0.0"}
!5 = !{!6, !6, i64 0}
!6 = !{!"int", !7, i64 0}
!7 = !{!"omnipotent char", !8, i64 0}
!8 = !{!"Simple C/C++ TBAA"}
!9 = distinct !{!9, !10}
!10 = !{!"llvm.loop.mustprogress"}
!11 = distinct !{!11, !10}
!12 = distinct !{!12, !10, !13}
!13 = !{!"llvm.loop.peeled.count", i32 1}
